target datalayout = "e-m:e-p270:32:32-p271:32:32-p272:64:64-i64:64-i128:128-f80:128-n8:16:32:64-S128"
target triple = "x86_64-pc-linux-gnu"

%"class.ncnn::ParamDict" = type { ptr, ptr }

; Function Attrs: mustprogress uwtable
define hidden void @_ZN4ncnn16copy_make_borderERKNS_3MatERS0_iiiiifRKNS_6OptionE(ptr noundef nonnull align 8 dereferenceable(72) %0, ptr noundef nonnull align 8 dereferenceable(72) %1, i32 noundef %2, i32 noundef %3, i32 noundef %4, i32 noundef %5, i32 noundef %6, float noundef nofpclass(nan inf) %7, ptr noundef nonnull align 8 dereferenceable(64) %8) #0 personality ptr @__gxx_personality_v0 {
  %10 = alloca ptr, align 8
  %11 = alloca ptr, align 8
  %12 = alloca i32, align 4
  %13 = alloca i32, align 4
  %14 = alloca i32, align 4
  %15 = alloca i32, align 4
  %16 = alloca i32, align 4
  %17 = alloca float, align 4
  %18 = alloca ptr, align 8
  %19 = alloca ptr, align 8
  %20 = alloca %"class.ncnn::ParamDict", align 8
  %21 = alloca ptr, align 8
  %22 = alloca i32, align 4
  store ptr %0, ptr %10, align 8, !tbaa !4
  store ptr %1, ptr %11, align 8, !tbaa !4
  store i32 %2, ptr %12, align 4, !tbaa !25
  store i32 %3, ptr %13, align 4, !tbaa !25
  store i32 %4, ptr %14, align 4, !tbaa !25
  store i32 %5, ptr %15, align 4, !tbaa !25
  store i32 %6, ptr %16, align 4, !tbaa !25
  store float %7, ptr %17, align 4, !tbaa !41
  store ptr %8, ptr %18, align 8, !tbaa !51
  call void @llvm.lifetime.start.p0(i64 8, ptr %19) #9
  %23 = call noundef ptr @_ZN4ncnn12create_layerEi(i32 noundef 43)
  store ptr %23, ptr %19, align 8, !tbaa !39
  call void @llvm.lifetime.start.p0(i64 16, ptr %20) #9
  call void @_ZN4ncnn9ParamDictC1Ev(ptr noundef nonnull align 8 dereferenceable(16) %20)
  %24 = load i32, ptr %12, align 4, !tbaa !25
  invoke void @_ZN4ncnn9ParamDict3setEii(ptr noundef nonnull align 8 dereferenceable(16) %20, i32 noundef 0, i32 noundef %24)
          to label %25 unwind label %72

25:                                               ; preds = %9
  %26 = load i32, ptr %13, align 4, !tbaa !25
  invoke void @_ZN4ncnn9ParamDict3setEii(ptr noundef nonnull align 8 dereferenceable(16) %20, i32 noundef 1, i32 noundef %26)
          to label %27 unwind label %72

27:                                               ; preds = %25
  %28 = load i32, ptr %14, align 4, !tbaa !25
  invoke void @_ZN4ncnn9ParamDict3setEii(ptr noundef nonnull align 8 dereferenceable(16) %20, i32 noundef 2, i32 noundef %28)
          to label %29 unwind label %72

29:                                               ; preds = %27
  %30 = load i32, ptr %15, align 4, !tbaa !25
  invoke void @_ZN4ncnn9ParamDict3setEii(ptr noundef nonnull align 8 dereferenceable(16) %20, i32 noundef 3, i32 noundef %30)
          to label %31 unwind label %72

31:                                               ; preds = %29
  %32 = load i32, ptr %16, align 4, !tbaa !25
  invoke void @_ZN4ncnn9ParamDict3setEii(ptr noundef nonnull align 8 dereferenceable(16) %20, i32 noundef 4, i32 noundef %32)
          to label %33 unwind label %72

33:                                               ; preds = %31
  %34 = load float, ptr %17, align 4, !tbaa !41
  invoke void @_ZN4ncnn9ParamDict3setEif(ptr noundef nonnull align 8 dereferenceable(16) %20, i32 noundef 5, float noundef nofpclass(nan inf) %34)
          to label %35 unwind label %72

35:                                               ; preds = %33
  %36 = load ptr, ptr %19, align 8, !tbaa !39
  %37 = load ptr, ptr %36, align 8, !tbaa !30
  %38 = getelementptr inbounds ptr, ptr %37, i64 2
  %39 = load ptr, ptr %38, align 8
  %40 = invoke noundef i32 %39(ptr noundef nonnull align 8 dereferenceable(208) %36, ptr noundef nonnull align 8 dereferenceable(16) %20)
          to label %41 unwind label %72

41:                                               ; preds = %35
  %42 = load ptr, ptr %19, align 8, !tbaa !39
  %43 = load ptr, ptr %18, align 8, !tbaa !51
  %44 = load ptr, ptr %42, align 8, !tbaa !30
  %45 = getelementptr inbounds ptr, ptr %44, i64 4
  %46 = load ptr, ptr %45, align 8
  %47 = invoke noundef i32 %46(ptr noundef nonnull align 8 dereferenceable(208) %42, ptr noundef nonnull align 8 dereferenceable(64) %43)
          to label %48 unwind label %72

48:                                               ; preds = %41
  %49 = load ptr, ptr %19, align 8, !tbaa !39
  %50 = load ptr, ptr %10, align 8, !tbaa !4
  %51 = load ptr, ptr %11, align 8, !tbaa !4
  %52 = load ptr, ptr %18, align 8, !tbaa !51
  %53 = load ptr, ptr %49, align 8, !tbaa !30
  %54 = getelementptr inbounds ptr, ptr %53, i64 7
  %55 = load ptr, ptr %54, align 8
  %56 = invoke noundef i32 %55(ptr noundef nonnull align 8 dereferenceable(208) %49, ptr noundef nonnull align 8 dereferenceable(72) %50, ptr noundef nonnull align 8 dereferenceable(72) %51, ptr noundef nonnull align 8 dereferenceable(64) %52)
          to label %57 unwind label %72

57:                                               ; preds = %48
  %58 = load ptr, ptr %19, align 8, !tbaa !39
  %59 = load ptr, ptr %18, align 8, !tbaa !51
  %60 = load ptr, ptr %58, align 8, !tbaa !30
  %61 = getelementptr inbounds ptr, ptr %60, i64 5
  %62 = load ptr, ptr %61, align 8
  %63 = invoke noundef i32 %62(ptr noundef nonnull align 8 dereferenceable(208) %58, ptr noundef nonnull align 8 dereferenceable(64) %59)
          to label %64 unwind label %72

64:                                               ; preds = %57
  %65 = load ptr, ptr %19, align 8, !tbaa !39
  %66 = icmp eq ptr %65, null
  br i1 %66, label %71, label %67

67:                                               ; preds = %64
  %68 = load ptr, ptr %65, align 8, !tbaa !30
  %69 = getelementptr inbounds ptr, ptr %68, i64 1
  %70 = load ptr, ptr %69, align 8
  call void %70(ptr noundef nonnull align 8 dereferenceable(208) %65) #9
  br label %71

71:                                               ; preds = %67, %64
  call void @_ZN4ncnn9ParamDictD1Ev(ptr noundef nonnull align 8 dereferenceable(16) %20) #9
  call void @llvm.lifetime.end.p0(i64 16, ptr %20) #9
  call void @llvm.lifetime.end.p0(i64 8, ptr %19) #9
  ret void

72:                                               ; preds = %57, %48, %41, %35, %33, %31, %29, %27, %25, %9
  %73 = landingpad { ptr, i32 }
          cleanup
  %74 = extractvalue { ptr, i32 } %73, 0
  store ptr %74, ptr %21, align 8
  %75 = extractvalue { ptr, i32 } %73, 1
  store i32 %75, ptr %22, align 4
  call void @_ZN4ncnn9ParamDictD1Ev(ptr noundef nonnull align 8 dereferenceable(16) %20) #9
  call void @llvm.lifetime.end.p0(i64 16, ptr %20) #9
  call void @llvm.lifetime.end.p0(i64 8, ptr %19) #9
  br label %76

76:                                               ; preds = %72
  %77 = load ptr, ptr %21, align 8
  %78 = load i32, ptr %22, align 4
  %79 = insertvalue { ptr, i32 } poison, ptr %77, 0
  %80 = insertvalue { ptr, i32 } %79, i32 %78, 1
  resume { ptr, i32 } %80
}