; Function Attrs: mustprogress uwtable
define hidden void @_ZN4ncnn16copy_make_borderERKNS_3MatERS0_iiiiifRKNS_6OptionE(ptr noundef nonnull align 8 dereferenceable(72) %0, ptr noundef nonnull align 8 dereferenceable(72) %1, i32 noundef %2, i32 noundef %3, i32 noundef %4, i32 noundef %5, i32 noundef %6, float noundef nofpclass(nan inf) %7, ptr noundef nonnull align 8 dereferenceable(64) %8) local_unnamed_addr #0 personality ptr @__gxx_personality_v0 {
  %10 = alloca %"class.ncnn::ParamDict", align 8
  %11 = tail call noundef ptr @_ZN4ncnn12create_layerEi(i32 noundef 43)
  call void @llvm.lifetime.start.p0(i64 16, ptr nonnull %10) #12
  call void @_ZN4ncnn9ParamDictC1Ev(ptr noundef nonnull align 8 dereferenceable(16) %10)
  invoke void @_ZN4ncnn9ParamDict3setEii(ptr noundef nonnull align 8 dereferenceable(16) %10, i32 noundef 0, i32 noundef %2)
          to label %12 unwind label %41

12:                                               ; preds = %9
  invoke void @_ZN4ncnn9ParamDict3setEii(ptr noundef nonnull align 8 dereferenceable(16) %10, i32 noundef 1, i32 noundef %3)
          to label %13 unwind label %41

13:                                               ; preds = %12
  invoke void @_ZN4ncnn9ParamDict3setEii(ptr noundef nonnull align 8 dereferenceable(16) %10, i32 noundef 2, i32 noundef %4)
          to label %14 unwind label %41

14:                                               ; preds = %13
  invoke void @_ZN4ncnn9ParamDict3setEii(ptr noundef nonnull align 8 dereferenceable(16) %10, i32 noundef 3, i32 noundef %5)
          to label %15 unwind label %41

15:                                               ; preds = %14
  invoke void @_ZN4ncnn9ParamDict3setEii(ptr noundef nonnull align 8 dereferenceable(16) %10, i32 noundef 4, i32 noundef %6)
          to label %16 unwind label %41

16:                                               ; preds = %15
  invoke void @_ZN4ncnn9ParamDict3setEif(ptr noundef nonnull align 8 dereferenceable(16) %10, i32 noundef 5, float noundef nofpclass(nan inf) %7)
          to label %17 unwind label %41

17:                                               ; preds = %16
  %18 = load ptr, ptr %11, align 8, !tbaa !31
  %19 = getelementptr inbounds nuw i8, ptr %18, i64 16
  %20 = load ptr, ptr %19, align 8
  %21 = invoke noundef i32 %20(ptr noundef nonnull align 8 dereferenceable(208) %11, ptr noundef nonnull align 8 dereferenceable(16) %10)
          to label %22 unwind label %41

22:                                               ; preds = %17
  %23 = load ptr, ptr %11, align 8, !tbaa !31
  %24 = getelementptr inbounds nuw i8, ptr %23, i64 32
  %25 = load ptr, ptr %24, align 8
  %26 = invoke noundef i32 %25(ptr noundef nonnull align 8 dereferenceable(208) %11, ptr noundef nonnull align 8 dereferenceable(64) %8)
          to label %27 unwind label %41

27:                                               ; preds = %22
  %28 = load ptr, ptr %11, align 8, !tbaa !31
  %29 = getelementptr inbounds nuw i8, ptr %28, i64 56
  %30 = load ptr, ptr %29, align 8
  %31 = invoke noundef i32 %30(ptr noundef nonnull align 8 dereferenceable(208) %11, ptr noundef nonnull align 8 dereferenceable(72) %0, ptr noundef nonnull align 8 dereferenceable(72) %1, ptr noundef nonnull align 8 dereferenceable(64) %8)
          to label %32 unwind label %41

32:                                               ; preds = %27
  %33 = load ptr, ptr %11, align 8, !tbaa !31
  %34 = getelementptr inbounds nuw i8, ptr %33, i64 40
  %35 = load ptr, ptr %34, align 8
  %36 = invoke noundef i32 %35(ptr noundef nonnull align 8 dereferenceable(208) %11, ptr noundef nonnull align 8 dereferenceable(64) %8)
          to label %37 unwind label %41

37:                                               ; preds = %32
  %38 = load ptr, ptr %11, align 8, !tbaa !31
  %39 = getelementptr inbounds nuw i8, ptr %38, i64 8
  %40 = load ptr, ptr %39, align 8
  call void %40(ptr noundef nonnull align 8 dereferenceable(208) %11) #12
  call void @_ZN4ncnn9ParamDictD1Ev(ptr noundef nonnull align 8 dereferenceable(16) %10) #12
  call void @llvm.lifetime.end.p0(i64 16, ptr nonnull %10) #12
  ret void

41:                                               ; preds = %32, %27, %22, %17, %16, %15, %14, %13, %12, %9
  %42 = landingpad { ptr, i32 }
          cleanup
  call void @_ZN4ncnn9ParamDictD1Ev(ptr noundef nonnull align 8 dereferenceable(16) %10) #12
  call void @llvm.lifetime.end.p0(i64 16, ptr nonnull %10) #12
  resume { ptr, i32 } %42
}